target datalayout = "e-m:e-p270:32:32-p271:32:32-p272:64:64-i64:64-f80:128-n8:16:32:64-S128"
target triple = "x86_64-pc-linux-gnu"

@.str = private unnamed_addr constant [4 x i8] c"%d\0A\00", align 1
@.str.1 = private unnamed_addr constant [4 x i8] c"NO\0A\00", align 1
@.str.2 = private unnamed_addr constant [4 x i8] c"%s\0A\00", align 1

; Function Attrs: noinline nounwind uwtable
define dso_local i32 @main() #0 {
  %1 = alloca i32, align 4
  %2 = alloca [500 x i8], align 16
  %3 = alloca [500 x [5 x i8]], align 16
  %4 = alloca [5 x i8], align 1
  %5 = alloca [500 x i32], align 16
  %6 = alloca i32, align 4
  %7 = alloca i32, align 4
  %8 = alloca i32, align 4
  %9 = alloca i32, align 4
  %10 = alloca i32, align 4
  %11 = alloca i32, align 4
  store i32 0, i32* %1, align 4
  %12 = bitcast [500 x i32]* %5 to i8*
  call void @llvm.memset.p0i8.i64(i8* align 16 %12, i8 0, i64 2000, i1 false)
  %13 = bitcast i8* %12 to <{ i32, [499 x i32] }>*
  %14 = getelementptr inbounds <{ i32, [499 x i32] }>, <{ i32, [499 x i32] }>* %13, i32 0, i32 0
  store i32 1, i32* %14, align 16
  %15 = call i32 (i8*, ...) @__isoc99_scanf(i8* getelementptr inbounds ([4 x i8], [4 x i8]* @.str, i64 0, i64 0), i32* %6)
  %16 = getelementptr inbounds [500 x i8], [500 x i8]* %2, i64 0, i64 0
  %17 = call i32 (i8*, ...) bitcast (i32 (...)* @gets to i32 (i8*, ...)*)(i8* %16)
  %18 = getelementptr inbounds [500 x i8], [500 x i8]* %2, i64 0, i64 0
  %19 = call i64 @strlen(i8* %18) #5
  %20 = trunc i64 %19 to i32
  store i32 %20, i32* %11, align 4
  store i32 0, i32* %7, align 4
  br label %21

21:                                               ; preds = %59, %0
  %22 = load i32, i32* %7, align 4
  %23 = load i32, i32* %11, align 4
  %24 = load i32, i32* %6, align 4
  %25 = sub nsw i32 %23, %24
  %26 = icmp sle i32 %22, %25
  br i1 %26, label %27, label %62

27:                                               ; preds = %21
  %28 = load i32, i32* %7, align 4
  store i32 %28, i32* %8, align 4
  br label %29

29:                                               ; preds = %49, %27
  %30 = load i32, i32* %8, align 4
  %31 = load i32, i32* %7, align 4
  %32 = load i32, i32* %6, align 4
  %33 = add nsw i32 %31, %32
  %34 = sub nsw i32 %33, 1
  %35 = icmp sle i32 %30, %34
  br i1 %35, label %36, label %52

36:                                               ; preds = %29
  %37 = load i32, i32* %8, align 4
  %38 = sext i32 %37 to i64
  %39 = getelementptr inbounds [500 x i8], [500 x i8]* %2, i64 0, i64 %38
  %40 = load i8, i8* %39, align 1
  %41 = load i32, i32* %7, align 4
  %42 = sext i32 %41 to i64
  %43 = getelementptr inbounds [500 x [5 x i8]], [500 x [5 x i8]]* %3, i64 0, i64 %42
  %44 = load i32, i32* %8, align 4
  %45 = load i32, i32* %7, align 4
  %46 = sub nsw i32 %44, %45
  %47 = sext i32 %46 to i64
  %48 = getelementptr inbounds [5 x i8], [5 x i8]* %43, i64 0, i64 %47
  store i8 %40, i8* %48, align 1
  br label %49

49:                                               ; preds = %36
  %50 = load i32, i32* %8, align 4
  %51 = add nsw i32 %50, 1
  store i32 %51, i32* %8, align 4
  br label %29

52:                                               ; preds = %29
  %53 = load i32, i32* %7, align 4
  %54 = sext i32 %53 to i64
  %55 = getelementptr inbounds [500 x [5 x i8]], [500 x [5 x i8]]* %3, i64 0, i64 %54
  %56 = load i32, i32* %6, align 4
  %57 = sext i32 %56 to i64
  %58 = getelementptr inbounds [5 x i8], [5 x i8]* %55, i64 0, i64 %57
  store i8 0, i8* %58, align 1
  br label %59

59:                                               ; preds = %52
  %60 = load i32, i32* %7, align 4
  %61 = add nsw i32 %60, 1
  store i32 %61, i32* %7, align 4
  br label %21

62:                                               ; preds = %21
  store i32 1, i32* %7, align 4
  br label %63

63:                                               ; preds = %116, %62
  %64 = load i32, i32* %7, align 4
  %65 = load i32, i32* %11, align 4
  %66 = load i32, i32* %6, align 4
  %67 = sub nsw i32 %65, %66
  %68 = icmp sle i32 %64, %67
  br i1 %68, label %69, label %119

69:                                               ; preds = %63
  store i32 1, i32* %9, align 4
  store i32 0, i32* %8, align 4
  br label %70

70:                                               ; preds = %100, %69
  %71 = load i32, i32* %8, align 4
  %72 = load i32, i32* %7, align 4
  %73 = sub nsw i32 %72, 1
  %74 = icmp sle i32 %71, %73
  br i1 %74, label %75, label %103

75:                                               ; preds = %70
  %76 = load i32, i32* %7, align 4
  %77 = sext i32 %76 to i64
  %78 = getelementptr inbounds [500 x [5 x i8]], [500 x [5 x i8]]* %3, i64 0, i64 %77
  %79 = getelementptr inbounds [5 x i8], [5 x i8]* %78, i64 0, i64 0
  %80 = load i32, i32* %8, align 4
  %81 = sext i32 %80 to i64
  %82 = getelementptr inbounds [500 x [5 x i8]], [500 x [5 x i8]]* %3, i64 0, i64 %81
  %83 = getelementptr inbounds [5 x i8], [5 x i8]* %82, i64 0, i64 0
  %84 = call i32 @strcmp(i8* %79, i8* %83) #5
  %85 = icmp eq i32 %84, 0
  br i1 %85, label %86, label %99

86:                                               ; preds = %75
  %87 = load i32, i32* %7, align 4
  %88 = sext i32 %87 to i64
  %89 = getelementptr inbounds [500 x [5 x i8]], [500 x [5 x i8]]* %3, i64 0, i64 %88
  %90 = getelementptr inbounds [5 x i8], [5 x i8]* %89, i64 0, i64 0
  store i8 0, i8* %90, align 1
  %91 = load i32, i32* %8, align 4
  %92 = sext i32 %91 to i64
  %93 = getelementptr inbounds [500 x i32], [500 x i32]* %5, i64 0, i64 %92
  %94 = load i32, i32* %93, align 4
  %95 = add nsw i32 %94, 1
  %96 = load i32, i32* %8, align 4
  %97 = sext i32 %96 to i64
  %98 = getelementptr inbounds [500 x i32], [500 x i32]* %5, i64 0, i64 %97
  store i32 %95, i32* %98, align 4
  store i32 0, i32* %9, align 4
  br label %103

99:                                               ; preds = %75
  br label %100

100:                                              ; preds = %99
  %101 = load i32, i32* %8, align 4
  %102 = add nsw i32 %101, 1
  store i32 %102, i32* %8, align 4
  br label %70

103:                                              ; preds = %86, %70
  %104 = load i32, i32* %9, align 4
  %105 = icmp eq i32 %104, 1
  br i1 %105, label %106, label %115

106:                                              ; preds = %103
  %107 = load i32, i32* %7, align 4
  %108 = sext i32 %107 to i64
  %109 = getelementptr inbounds [500 x i32], [500 x i32]* %5, i64 0, i64 %108
  %110 = load i32, i32* %109, align 4
  %111 = add nsw i32 %110, 1
  %112 = load i32, i32* %7, align 4
  %113 = sext i32 %112 to i64
  %114 = getelementptr inbounds [500 x i32], [500 x i32]* %5, i64 0, i64 %113
  store i32 %111, i32* %114, align 4
  br label %115

115:                                              ; preds = %106, %103
  br label %116

116:                                              ; preds = %115
  %117 = load i32, i32* %7, align 4
  %118 = add nsw i32 %117, 1
  store i32 %118, i32* %7, align 4
  br label %63

119:                                              ; preds = %63
  store i32 0, i32* %7, align 4
  br label %120

120:                                              ; preds = %195, %119
  %121 = load i32, i32* %7, align 4
  %122 = load i32, i32* %11, align 4
  %123 = load i32, i32* %6, align 4
  %124 = sub nsw i32 %122, %123
  %125 = sub nsw i32 %124, 1
  %126 = icmp sle i32 %121, %125
  br i1 %126, label %127, label %198

127:                                              ; preds = %120
  %128 = load i32, i32* %7, align 4
  store i32 %128, i32* %9, align 4
  %129 = load i32, i32* %7, align 4
  %130 = add nsw i32 %129, 1
  store i32 %130, i32* %8, align 4
  br label %131

131:                                              ; preds = %150, %127
  %132 = load i32, i32* %8, align 4
  %133 = load i32, i32* %11, align 4
  %134 = load i32, i32* %6, align 4
  %135 = sub nsw i32 %133, %134
  %136 = icmp sle i32 %132, %135
  br i1 %136, label %137, label %153

137:                                              ; preds = %131
  %138 = load i32, i32* %8, align 4
  %139 = sext i32 %138 to i64
  %140 = getelementptr inbounds [500 x i32], [500 x i32]* %5, i64 0, i64 %139
  %141 = load i32, i32* %140, align 4
  %142 = load i32, i32* %9, align 4
  %143 = sext i32 %142 to i64
  %144 = getelementptr inbounds [500 x i32], [500 x i32]* %5, i64 0, i64 %143
  %145 = load i32, i32* %144, align 4
  %146 = icmp sgt i32 %141, %145
  br i1 %146, label %147, label %149

147:                                              ; preds = %137
  %148 = load i32, i32* %8, align 4
  store i32 %148, i32* %9, align 4
  br label %149

149:                                              ; preds = %147, %137
  br label %150

150:                                              ; preds = %149
  %151 = load i32, i32* %8, align 4
  %152 = add nsw i32 %151, 1
  store i32 %152, i32* %8, align 4
  br label %131

153:                                              ; preds = %131
  %154 = load i32, i32* %9, align 4
  %155 = load i32, i32* %7, align 4
  %156 = icmp ne i32 %154, %155
  br i1 %156, label %157, label %194

157:                                              ; preds = %153
  %158 = getelementptr inbounds [5 x i8], [5 x i8]* %4, i64 0, i64 0
  %159 = load i32, i32* %9, align 4
  %160 = sext i32 %159 to i64
  %161 = getelementptr inbounds [500 x [5 x i8]], [500 x [5 x i8]]* %3, i64 0, i64 %160
  %162 = getelementptr inbounds [5 x i8], [5 x i8]* %161, i64 0, i64 0
  %163 = call i8* @strcpy(i8* %158, i8* %162) #6
  %164 = load i32, i32* %9, align 4
  %165 = sext i32 %164 to i64
  %166 = getelementptr inbounds [500 x [5 x i8]], [500 x [5 x i8]]* %3, i64 0, i64 %165
  %167 = getelementptr inbounds [5 x i8], [5 x i8]* %166, i64 0, i64 0
  %168 = load i32, i32* %7, align 4
  %169 = sext i32 %168 to i64
  %170 = getelementptr inbounds [500 x [5 x i8]], [500 x [5 x i8]]* %3, i64 0, i64 %169
  %171 = getelementptr inbounds [5 x i8], [5 x i8]* %170, i64 0, i64 0
  %172 = call i8* @strcpy(i8* %167, i8* %171) #6
  %173 = load i32, i32* %7, align 4
  %174 = sext i32 %173 to i64
  %175 = getelementptr inbounds [500 x [5 x i8]], [500 x [5 x i8]]* %3, i64 0, i64 %174
  %176 = getelementptr inbounds [5 x i8], [5 x i8]* %175, i64 0, i64 0
  %177 = getelementptr inbounds [5 x i8], [5 x i8]* %4, i64 0, i64 0
  %178 = call i8* @strcpy(i8* %176, i8* %177) #6
  %179 = load i32, i32* %9, align 4
  %180 = sext i32 %179 to i64
  %181 = getelementptr inbounds [500 x i32], [500 x i32]* %5, i64 0, i64 %180
  %182 = load i32, i32* %181, align 4
  store i32 %182, i32* %10, align 4
  %183 = load i32, i32* %7, align 4
  %184 = sext i32 %183 to i64
  %185 = getelementptr inbounds [500 x i32], [500 x i32]* %5, i64 0, i64 %184
  %186 = load i32, i32* %185, align 4
  %187 = load i32, i32* %9, align 4
  %188 = sext i32 %187 to i64
  %189 = getelementptr inbounds [500 x i32], [500 x i32]* %5, i64 0, i64 %188
  store i32 %186, i32* %189, align 4
  %190 = load i32, i32* %10, align 4
  %191 = load i32, i32* %7, align 4
  %192 = sext i32 %191 to i64
  %193 = getelementptr inbounds [500 x i32], [500 x i32]* %5, i64 0, i64 %192
  store i32 %190, i32* %193, align 4
  br label %194

194:                                              ; preds = %157, %153
  br label %195

195:                                              ; preds = %194
  %196 = load i32, i32* %7, align 4
  %197 = add nsw i32 %196, 1
  store i32 %197, i32* %7, align 4
  br label %120

198:                                              ; preds = %120
  %199 = getelementptr inbounds [500 x i32], [500 x i32]* %5, i64 0, i64 0
  %200 = load i32, i32* %199, align 16
  %201 = icmp eq i32 %200, 1
  br i1 %201, label %202, label %204

202:                                              ; preds = %198
  %203 = call i32 (i8*, ...) @printf(i8* getelementptr inbounds ([4 x i8], [4 x i8]* @.str.1, i64 0, i64 0))
  br label %233

204:                                              ; preds = %198
  %205 = getelementptr inbounds [500 x i32], [500 x i32]* %5, i64 0, i64 0
  %206 = load i32, i32* %205, align 16
  %207 = call i32 (i8*, ...) @printf(i8* getelementptr inbounds ([4 x i8], [4 x i8]* @.str, i64 0, i64 0), i32 %206)
  store i32 0, i32* %7, align 4
  br label %208

208:                                              ; preds = %229, %204
  %209 = load i32, i32* %7, align 4
  %210 = load i32, i32* %11, align 4
  %211 = load i32, i32* %6, align 4
  %212 = sub nsw i32 %210, %211
  %213 = icmp sle i32 %209, %212
  br i1 %213, label %214, label %232

214:                                              ; preds = %208
  %215 = load i32, i32* %7, align 4
  %216 = sext i32 %215 to i64
  %217 = getelementptr inbounds [500 x i32], [500 x i32]* %5, i64 0, i64 %216
  %218 = load i32, i32* %217, align 4
  %219 = getelementptr inbounds [500 x i32], [500 x i32]* %5, i64 0, i64 0
  %220 = load i32, i32* %219, align 16
  %221 = icmp eq i32 %218, %220
  br i1 %221, label %222, label %228

222:                                              ; preds = %214
  %223 = load i32, i32* %7, align 4
  %224 = sext i32 %223 to i64
  %225 = getelementptr inbounds [500 x [5 x i8]], [500 x [5 x i8]]* %3, i64 0, i64 %224
  %226 = getelementptr inbounds [5 x i8], [5 x i8]* %225, i64 0, i64 0
  %227 = call i32 (i8*, ...) @printf(i8* getelementptr inbounds ([4 x i8], [4 x i8]* @.str.2, i64 0, i64 0), i8* %226)
  br label %228

228:                                              ; preds = %222, %214
  br label %229

229:                                              ; preds = %228
  %230 = load i32, i32* %7, align 4
  %231 = add nsw i32 %230, 1
  store i32 %231, i32* %7, align 4
  br label %208

232:                                              ; preds = %208
  br label %233

233:                                              ; preds = %232, %202
  %234 = load i32, i32* %1, align 4
  ret i32 %234
}